; ModuleID = 'source-C-CXX/33/2356.c'
source_filename = "source-C-CXX/33/2356.c"
target datalayout = "e-m:e-p270:32:32-p271:32:32-p272:64:64-i64:64-f80:128-n8:16:32:64-S128"
target triple = "x86_64-pc-linux-gnu"

@.str = private unnamed_addr constant [3 x i8] c"%d\00", align 1
@.str.1 = private unnamed_addr constant [11 x i8] c"%d*3+1=%d\0A\00", align 1
@.str.2 = private unnamed_addr constant [9 x i8] c"%d/2=%d\0A\00", align 1
@.str.3 = private unnamed_addr constant [4 x i8] c"End\00", align 1

; Function Attrs: nofree nounwind sspstrong uwtable
define dso_local i32 @main() local_unnamed_addr #0 {
  %1 = alloca i32, align 4
  %2 = bitcast i32* %1 to i8*
  call void @llvm.lifetime.start.p0i8(i64 4, i8* nonnull %2) #3
  %3 = call i32 (i8*, ...) @__isoc99_scanf(i8* getelementptr inbounds ([3 x i8], [3 x i8]* @.str, i64 0, i64 0), i32* nonnull %1)
  %4 = load i32, i32* %1, align 4, !tbaa !5
  %5 = icmp eq i32 %4, 1
  br i1 %5, label %25, label %6

6:                                                ; preds = %0, %22
  %7 = phi i32 [ %23, %22 ], [ %4, %0 ]
  %8 = and i32 %7, 1
  %9 = icmp eq i32 %8, 0
  br i1 %9, label %17, label %10

10:                                               ; preds = %6
  %11 = mul nsw i32 %7, 3
  %12 = add nsw i32 %11, 1
  %13 = call i32 (i8*, ...) @printf(i8* nonnull dereferenceable(1) getelementptr inbounds ([11 x i8], [11 x i8]* @.str.1, i64 0, i64 0), i32 %7, i32 %12)
  %14 = load i32, i32* %1, align 4, !tbaa !5
  %15 = mul nsw i32 %14, 3
  %16 = add nsw i32 %15, 1
  br label %22

17:                                               ; preds = %6
  %18 = sdiv i32 %7, 2
  %19 = call i32 (i8*, ...) @printf(i8* nonnull dereferenceable(1) getelementptr inbounds ([9 x i8], [9 x i8]* @.str.2, i64 0, i64 0), i32 %7, i32 %18)
  %20 = load i32, i32* %1, align 4, !tbaa !5
  %21 = sdiv i32 %20, 2
  br label %22

22:                                               ; preds = %10, %17
  %23 = phi i32 [ %21, %17 ], [ %16, %10 ]
  store i32 %23, i32* %1, align 4, !tbaa !5
  %24 = icmp sgt i32 %23, 1
  br i1 %24, label %6, label %25, !llvm.loop !9

25:                                               ; preds = %22, %0
  %26 = call i32 (i8*, ...) @printf(i8* nonnull dereferenceable(1) getelementptr inbounds ([4 x i8], [4 x i8]* @.str.3, i64 0, i64 0))
  call void @llvm.lifetime.end.p0i8(i64 4, i8* nonnull %2) #3
  ret i32 0
}

; Function Attrs: argmemonly mustprogress nofree nosync nounwind willreturn
declare void @llvm.lifetime.start.p0i8(i64 immarg, i8* nocapture) #1

; Function Attrs: nofree nounwind
declare noundef i32 @__isoc99_scanf(i8* nocapture noundef readonly, ...) local_unnamed_addr #2

; Function Attrs: nofree nounwind
declare noundef i32 @printf(i8* nocapture noundef readonly, ...) local_unnamed_addr #2

; Function Attrs: argmemonly mustprogress nofree nosync nounwind willreturn
declare void @llvm.lifetime.end.p0i8(i64 immarg, i8* nocapture) #1


!llvm.module.flags = !{!0, !1, !2, !3}
!llvm.ident = !{!4}

!0 = !{i32 1, !"wchar_size", i32 4}
!1 = !{i32 7, !"PIC Level", i32 2}
!2 = !{i32 7, !"PIE Level", i32 2}
!3 = !{i32 7, !"uwtable", i32 1}
!4 = !{!"clang version 13.0.0"}
!5 = !{!6, !6, i64 0}
!6 = !{!"int", !7, i64 0}
!7 = !{!"omnipotent char", !8, i64 0}
!8 = !{!"Simple C/C++ TBAA"}
!9 = distinct !{!9, !10}
!10 = !{!"llvm.loop.mustprogress"}
